target datalayout = "e-m:e-p270:32:32-p271:32:32-p272:64:64-i64:64-i128:128-f80:128-n8:16:32:64-S128"
target triple = "x86_64-unknown-linux-gnu"

%struct.btDbvtBroadphase = type { %class.btBroadphaseInterface, [2 x %struct.btDbvt], [3 x ptr], ptr, float, i32, i32, i32, i32, i32, i32, i32, i32, float, i32, i32, i32, i8, i8, i8, i8, %class.btAlignedObjectArray.0 }
%class.btBroadphaseInterface = type { ptr }
%struct.btDbvt = type { ptr, ptr, i32, i32, i32, [4 x i8], %class.btAlignedObjectArray }
%class.btAlignedObjectArray = type <{ %class.btAlignedAllocator, [3 x i8], i32, i32, [4 x i8], ptr, i8, [7 x i8] }>
%class.btAlignedAllocator = type { i8 }
%class.btAlignedObjectArray.0 = type <{ %class.btAlignedAllocator.1, [3 x i8], i32, i32, [4 x i8], ptr, i8, [7 x i8] }>
%class.btAlignedAllocator.1 = type { i8 }
%class.btVector3 = type { [4 x float] }
%struct.btDbvtProxy = type <{ %struct.btBroadphaseProxy.base, [4 x i8], ptr, [2 x ptr], i32, [4 x i8] }>
%struct.btBroadphaseProxy.base = type <{ ptr, i32, i32, i32, %class.btVector3, %class.btVector3 }>

; Function Attrs: mustprogress nounwind uwtable
define internal void @_ZL10listremoveI11btDbvtProxyEvPT_RS2_(ptr noundef %item, ptr noundef nonnull align 8 dereferenceable(8) %list) #1 {
entry:
  %item.addr = alloca ptr, align 8
  %list.addr = alloca ptr, align 8
  store ptr %item, ptr %item.addr, align 8
  store ptr %list, ptr %list.addr, align 8
  %0 = load ptr, ptr %item.addr, align 8
  %links = getelementptr inbounds %struct.btDbvtProxy, ptr %0, i32 0, i32 3
  %arrayidx = getelementptr inbounds [2 x ptr], ptr %links, i64 0, i64 0
  %1 = load ptr, ptr %arrayidx, align 8
  %tobool = icmp ne ptr %1, null
  br i1 %tobool, label %if.then, label %if.else

if.then:                                          ; preds = %entry
  %2 = load ptr, ptr %item.addr, align 8
  %links1 = getelementptr inbounds %struct.btDbvtProxy, ptr %2, i32 0, i32 3
  %arrayidx2 = getelementptr inbounds [2 x ptr], ptr %links1, i64 0, i64 1
  %3 = load ptr, ptr %arrayidx2, align 8
  %4 = load ptr, ptr %item.addr, align 8
  %links3 = getelementptr inbounds %struct.btDbvtProxy, ptr %4, i32 0, i32 3
  %arrayidx4 = getelementptr inbounds [2 x ptr], ptr %links3, i64 0, i64 0
  %5 = load ptr, ptr %arrayidx4, align 8
  %links5 = getelementptr inbounds %struct.btDbvtProxy, ptr %5, i32 0, i32 3
  %arrayidx6 = getelementptr inbounds [2 x ptr], ptr %links5, i64 0, i64 1
  store ptr %3, ptr %arrayidx6, align 8
  br label %if.end

if.else:                                          ; preds = %entry
  %6 = load ptr, ptr %item.addr, align 8
  %links7 = getelementptr inbounds %struct.btDbvtProxy, ptr %6, i32 0, i32 3
  %arrayidx8 = getelementptr inbounds [2 x ptr], ptr %links7, i64 0, i64 1
  %7 = load ptr, ptr %arrayidx8, align 8
  %8 = load ptr, ptr %list.addr, align 8
  store ptr %7, ptr %8, align 8
  br label %if.end

if.end:                                           ; preds = %if.else, %if.then
  %9 = load ptr, ptr %item.addr, align 8
  %links9 = getelementptr inbounds %struct.btDbvtProxy, ptr %9, i32 0, i32 3
  %arrayidx10 = getelementptr inbounds [2 x ptr], ptr %links9, i64 0, i64 1
  %10 = load ptr, ptr %arrayidx10, align 8
  %tobool11 = icmp ne ptr %10, null
  br i1 %tobool11, label %if.then12, label %if.end19

if.then12:                                        ; preds = %if.end
  %11 = load ptr, ptr %item.addr, align 8
  %links13 = getelementptr inbounds %struct.btDbvtProxy, ptr %11, i32 0, i32 3
  %arrayidx14 = getelementptr inbounds [2 x ptr], ptr %links13, i64 0, i64 0
  %12 = load ptr, ptr %arrayidx14, align 8
  %13 = load ptr, ptr %item.addr, align 8
  %links15 = getelementptr inbounds %struct.btDbvtProxy, ptr %13, i32 0, i32 3
  %arrayidx16 = getelementptr inbounds [2 x ptr], ptr %links15, i64 0, i64 1
  %14 = load ptr, ptr %arrayidx16, align 8
  %links17 = getelementptr inbounds %struct.btDbvtProxy, ptr %14, i32 0, i32 3
  %arrayidx18 = getelementptr inbounds [2 x ptr], ptr %links17, i64 0, i64 0
  store ptr %12, ptr %arrayidx18, align 8
  br label %if.end19

if.end19:                                         ; preds = %if.then12, %if.end
  ret void
}

; Function Attrs: mustprogress uwtable
define dso_local void @_ZN16btDbvtBroadphase12destroyProxyEP17btBroadphaseProxyP12btDispatcher(ptr noundef nonnull align 8 dereferenceable(256) %this, ptr noundef %absproxy, ptr noundef %dispatcher) unnamed_addr #2 align 2 {
entry:
  %this.addr = alloca ptr, align 8
  %absproxy.addr = alloca ptr, align 8
  %dispatcher.addr = alloca ptr, align 8
  %proxy = alloca ptr, align 8
  store ptr %this, ptr %this.addr, align 8
  store ptr %absproxy, ptr %absproxy.addr, align 8
  store ptr %dispatcher, ptr %dispatcher.addr, align 8
  %this1 = load ptr, ptr %this.addr, align 8
  %0 = load ptr, ptr %absproxy.addr, align 8
  store ptr %0, ptr %proxy, align 8
  %1 = load ptr, ptr %proxy, align 8
  %stage = getelementptr inbounds %struct.btDbvtProxy, ptr %1, i32 0, i32 4
  %2 = load i32, ptr %stage, align 8
  %cmp = icmp eq i32 %2, 2
  br i1 %cmp, label %if.then, label %if.else

if.then:                                          ; preds = %entry
  %m_sets = getelementptr inbounds %struct.btDbvtBroadphase, ptr %this1, i32 0, i32 1
  %arrayidx = getelementptr inbounds [2 x %struct.btDbvt], ptr %m_sets, i64 0, i64 1
  %3 = load ptr, ptr %proxy, align 8
  %leaf = getelementptr inbounds %struct.btDbvtProxy, ptr %3, i32 0, i32 2
  %4 = load ptr, ptr %leaf, align 8
  call void @_ZN6btDbvt6removeEP10btDbvtNode(ptr noundef nonnull align 8 dereferenceable(64) %arrayidx, ptr noundef %4)
  br label %if.end

if.else:                                          ; preds = %entry
  %m_sets2 = getelementptr inbounds %struct.btDbvtBroadphase, ptr %this1, i32 0, i32 1
  %arrayidx3 = getelementptr inbounds [2 x %struct.btDbvt], ptr %m_sets2, i64 0, i64 0
  %5 = load ptr, ptr %proxy, align 8
  %leaf4 = getelementptr inbounds %struct.btDbvtProxy, ptr %5, i32 0, i32 2
  %6 = load ptr, ptr %leaf4, align 8
  call void @_ZN6btDbvt6removeEP10btDbvtNode(ptr noundef nonnull align 8 dereferenceable(64) %arrayidx3, ptr noundef %6)
  br label %if.end

if.end:                                           ; preds = %if.else, %if.then
  %7 = load ptr, ptr %proxy, align 8
  %m_stageRoots = getelementptr inbounds %struct.btDbvtBroadphase, ptr %this1, i32 0, i32 2
  %8 = load ptr, ptr %proxy, align 8
  %stage5 = getelementptr inbounds %struct.btDbvtProxy, ptr %8, i32 0, i32 4
  %9 = load i32, ptr %stage5, align 8
  %idxprom = sext i32 %9 to i64
  %arrayidx6 = getelementptr inbounds [3 x ptr], ptr %m_stageRoots, i64 0, i64 %idxprom
  call void @_ZL10listremoveI11btDbvtProxyEvPT_RS2_(ptr noundef %7, ptr noundef nonnull align 8 dereferenceable(8) %arrayidx6)
  %m_paircache = getelementptr inbounds %struct.btDbvtBroadphase, ptr %this1, i32 0, i32 3
  %10 = load ptr, ptr %m_paircache, align 8
  %11 = load ptr, ptr %proxy, align 8
  %12 = load ptr, ptr %dispatcher.addr, align 8
  %vtable = load ptr, ptr %10, align 8
  %vfn = getelementptr inbounds ptr, ptr %vtable, i64 4
  %13 = load ptr, ptr %vfn, align 8
  call void %13(ptr noundef nonnull align 8 dereferenceable(8) %10, ptr noundef %11, ptr noundef %12)
  %14 = load ptr, ptr %proxy, align 8
  call void @_Z21btAlignedFreeInternalPv(ptr noundef %14)
  %m_needcleanup = getelementptr inbounds %struct.btDbvtBroadphase, ptr %this1, i32 0, i32 19
  store i8 1, ptr %m_needcleanup, align 2
  ret void
}