; Function Attrs: mustprogress uwtable
define dso_local void @_ZN16btDbvtBroadphase12destroyProxyEP17btBroadphaseProxyP12btDispatcher(ptr noundef nonnull align 8 dereferenceable(256) %this, ptr noundef %absproxy, ptr noundef %dispatcher) unnamed_addr #0 align 2 {
entry:
  %stage = getelementptr inbounds i8, ptr %absproxy, i64 80
  %0 = load i32, ptr %stage, align 8
  %cmp = icmp eq i32 %0, 2
  %leaf = getelementptr inbounds i8, ptr %absproxy, i64 56
  %1 = load ptr, ptr %leaf, align 8
  %. = select i1 %cmp, i64 72, i64 8
  %m_sets2 = getelementptr inbounds i8, ptr %this, i64 %.
  tail call void @_ZN6btDbvt6removeEP10btDbvtNode(ptr noundef nonnull align 8 dereferenceable(64) %m_sets2, ptr noundef %1)
  %m_stageRoots = getelementptr inbounds i8, ptr %this, i64 136
  %2 = load i32, ptr %stage, align 8
  %idxprom = sext i32 %2 to i64
  %arrayidx6 = getelementptr inbounds [3 x ptr], ptr %m_stageRoots, i64 0, i64 %idxprom
  %links.i = getelementptr inbounds i8, ptr %absproxy, i64 64
  %3 = load ptr, ptr %links.i, align 8
  %tobool.not.i = icmp eq ptr %3, null
  %arrayidx8.i = getelementptr inbounds i8, ptr %absproxy, i64 72
  %4 = load ptr, ptr %arrayidx8.i, align 8
  %arrayidx6.i = getelementptr inbounds i8, ptr %3, i64 72
  %list.sink.i = select i1 %tobool.not.i, ptr %arrayidx6, ptr %arrayidx6.i
  store ptr %4, ptr %list.sink.i, align 8
  %tobool11.not.i = icmp eq ptr %4, null
  br i1 %tobool11.not.i, label %_ZL10listremoveI11btDbvtProxyEvPT_RS2_.exit, label %if.then12.i

if.then12.i:                                      ; preds = %entry
  %5 = load ptr, ptr %links.i, align 8
  %links17.i = getelementptr inbounds i8, ptr %4, i64 64
  store ptr %5, ptr %links17.i, align 8
  br label %_ZL10listremoveI11btDbvtProxyEvPT_RS2_.exit

_ZL10listremoveI11btDbvtProxyEvPT_RS2_.exit:      ; preds = %entry, %if.then12.i
  %m_paircache = getelementptr inbounds i8, ptr %this, i64 160
  %6 = load ptr, ptr %m_paircache, align 8
  %vtable = load ptr, ptr %6, align 8
  %vfn = getelementptr inbounds i8, ptr %vtable, i64 32
  %7 = load ptr, ptr %vfn, align 8
  tail call void %7(ptr noundef nonnull align 8 dereferenceable(8) %6, ptr noundef nonnull %absproxy, ptr noundef %dispatcher)
  tail call void @_Z21btAlignedFreeInternalPv(ptr noundef nonnull %absproxy)
  %m_needcleanup = getelementptr inbounds i8, ptr %this, i64 222
  store i8 1, ptr %m_needcleanup, align 2
  ret void
}